target datalayout = "e-m:e-p270:32:32-p271:32:32-p272:64:64-i64:64-i128:128-f80:128-n8:16:32:64-S128"
target triple = "x86_64-pc-linux-gnu"

%class.bv_rewriter_core = type { ptr, %class.bv_util, %class.obj_ref }
%class.bv_util = type { %class.bv_recognizers, ptr, ptr }
%class.bv_recognizers = type { i32 }
%class.obj_ref = type { ptr, ptr }
%class.decl = type { %class.ast, %class.symbol, ptr }
%class.ast = type { i32, i32, i32, i32 }
%class.symbol = type { ptr }
%class.app = type { %class.expr, ptr, i32, %struct.app_flags, [0 x ptr] }
%class.expr = type { %class.ast }
%struct.app_flags = type <{ i16, i8, i8 }>
%class.decl_info = type <{ i32, i32, %class.vector.60, i8, [7 x i8] }>
%class.vector.60 = type { ptr }

; Function Attrs: mustprogress nounwind uwtable
define linkonce_odr hidden noundef zeroext i1 @_ZNK9decl_info10is_decl_ofEii(ptr noundef nonnull align 8 dereferenceable(17) %0, i32 noundef %1, i32 noundef %2) #6 comdat align 2 {
  %4 = alloca ptr, align 8
  %5 = alloca i32, align 4
  %6 = alloca i32, align 4
  store ptr %0, ptr %4, align 8, !tbaa !426
  store i32 %1, ptr %5, align 4, !tbaa !63
  store i32 %2, ptr %6, align 4, !tbaa !63
  %7 = load ptr, ptr %4, align 8
  %8 = getelementptr inbounds nuw %class.decl_info, ptr %7, i32 0, i32 0
  %9 = load i32, ptr %8, align 8, !tbaa !518
  %10 = load i32, ptr %5, align 4, !tbaa !63
  %11 = icmp eq i32 %9, %10
  br i1 %11, label %12, label %17

12:                                               ; preds = %3
  %13 = load i32, ptr %6, align 4, !tbaa !63
  %14 = getelementptr inbounds nuw %class.decl_info, ptr %7, i32 0, i32 1
  %15 = load i32, ptr %14, align 4, !tbaa !427
  %16 = icmp eq i32 %13, %15
  br label %17

17:                                               ; preds = %12, %3
  %18 = phi i1 [ false, %3 ], [ %16, %12 ]
  ret i1 %18
}

; Function Attrs: mustprogress uwtable
define linkonce_odr hidden noundef zeroext i1 @_ZNK4decl10is_decl_ofEii(ptr noundef nonnull align 8 dereferenceable(32) %0, i32 noundef %1, i32 noundef %2) #4 comdat align 2 {
  %4 = alloca ptr, align 8
  %5 = alloca i32, align 4
  %6 = alloca i32, align 4
  store ptr %0, ptr %4, align 8, !tbaa !72
  store i32 %1, ptr %5, align 4, !tbaa !63
  store i32 %2, ptr %6, align 4, !tbaa !63
  %7 = load ptr, ptr %4, align 8
  %8 = getelementptr inbounds nuw %class.decl, ptr %7, i32 0, i32 2
  %9 = load ptr, ptr %8, align 8, !tbaa !74
  %10 = icmp ne ptr %9, null
  br i1 %10, label %11, label %17

11:                                               ; preds = %3
  %12 = getelementptr inbounds nuw %class.decl, ptr %7, i32 0, i32 2
  %13 = load ptr, ptr %12, align 8, !tbaa !74
  %14 = load i32, ptr %5, align 4, !tbaa !63
  %15 = load i32, ptr %6, align 4, !tbaa !63
  %16 = call noundef zeroext i1 @_ZNK9decl_info10is_decl_ofEii(ptr noundef nonnull align 8 dereferenceable(17) %13, i32 noundef %14, i32 noundef %15)
  br label %17

17:                                               ; preds = %11, %3
  %18 = phi i1 [ false, %3 ], [ %16, %11 ]
  ret i1 %18
}

; Function Attrs: mustprogress uwtable
define linkonce_odr hidden noundef zeroext i1 @_ZNK3app9is_app_ofEii(ptr noundef nonnull align 8 dereferenceable(32) %0, i32 noundef %1, i32 noundef %2) #4 comdat align 2 {
  %4 = alloca ptr, align 8
  %5 = alloca i32, align 4
  %6 = alloca i32, align 4
  store ptr %0, ptr %4, align 8, !tbaa !90
  store i32 %1, ptr %5, align 4, !tbaa !63
  store i32 %2, ptr %6, align 4, !tbaa !63
  %7 = load ptr, ptr %4, align 8
  %8 = getelementptr inbounds nuw %class.app, ptr %7, i32 0, i32 1
  %9 = load ptr, ptr %8, align 8, !tbaa !228
  %10 = load i32, ptr %5, align 4, !tbaa !63
  %11 = load i32, ptr %6, align 4, !tbaa !63
  %12 = call noundef zeroext i1 @_ZNK4decl10is_decl_ofEii(ptr noundef nonnull align 8 dereferenceable(32) %9, i32 noundef %10, i32 noundef %11)
  ret i1 %12
}

; Function Attrs: mustprogress nounwind uwtable
define linkonce_odr hidden noundef i32 @_ZNK3ast8get_kindEv(ptr noundef nonnull align 4 dereferenceable(16) %0) #6 comdat align 2 {
  %2 = alloca ptr, align 8
  store ptr %0, ptr %2, align 8, !tbaa !141
  %3 = load ptr, ptr %2, align 8
  %4 = getelementptr inbounds nuw %class.ast, ptr %3, i32 0, i32 1
  %5 = load i32, ptr %4, align 4
  %6 = and i32 %5, 65535
  ret i32 %6
}

; Function Attrs: inlinehint mustprogress uwtable
define linkonce_odr hidden noundef zeroext i1 @_Z9is_app_ofPK4exprii(ptr noundef %0, i32 noundef %1, i32 noundef %2) #8 comdat {
  %4 = alloca ptr, align 8
  %5 = alloca i32, align 4
  %6 = alloca i32, align 4
  store ptr %0, ptr %4, align 8, !tbaa !71
  store i32 %1, ptr %5, align 4, !tbaa !63
  store i32 %2, ptr %6, align 4, !tbaa !63
  %7 = load ptr, ptr %4, align 8, !tbaa !71
  %8 = call noundef i32 @_ZNK3ast8get_kindEv(ptr noundef nonnull align 4 dereferenceable(16) %7)
  %9 = icmp eq i32 %8, 0
  br i1 %9, label %10, label %16

10:                                               ; preds = %3
  %11 = load ptr, ptr %4, align 8, !tbaa !71
  %12 = call noundef ptr @_Z6to_appPK3ast(ptr noundef %11)
  %13 = load i32, ptr %5, align 4, !tbaa !63
  %14 = load i32, ptr %6, align 4, !tbaa !63
  %15 = call noundef zeroext i1 @_ZNK3app9is_app_ofEii(ptr noundef nonnull align 8 dereferenceable(32) %12, i32 noundef %13, i32 noundef %14)
  br label %16

16:                                               ; preds = %10, %3
  %17 = phi i1 [ false, %3 ], [ %15, %10 ]
  ret i1 %17
}

; Function Attrs: mustprogress nounwind uwtable
define linkonce_odr hidden noundef ptr @_ZNK3app7get_argEj(ptr noundef nonnull align 8 dereferenceable(32) %0, i32 noundef %1) #6 comdat align 2 {
  %3 = alloca ptr, align 8
  %4 = alloca i32, align 4
  store ptr %0, ptr %3, align 8, !tbaa !90
  store i32 %1, ptr %4, align 4, !tbaa !63
  %5 = load ptr, ptr %3, align 8
  %6 = getelementptr inbounds nuw %class.app, ptr %5, i32 0, i32 4
  %7 = load i32, ptr %4, align 4, !tbaa !63
  %8 = zext i32 %7 to i64
  %9 = getelementptr inbounds nuw [0 x ptr], ptr %6, i64 0, i64 %8
  %10 = load ptr, ptr %9, align 8, !tbaa !71
  ret ptr %10
}

; Function Attrs: mustprogress nounwind uwtable
define linkonce_odr hidden noundef i32 @_ZNK3app12get_num_argsEv(ptr noundef nonnull align 8 dereferenceable(32) %0) #6 comdat align 2 {
  %2 = alloca ptr, align 8
  store ptr %0, ptr %2, align 8, !tbaa !90
  %3 = load ptr, ptr %2, align 8
  %4 = getelementptr inbounds nuw %class.app, ptr %3, i32 0, i32 2
  %5 = load i32, ptr %4, align 8, !tbaa !143
  ret i32 %5
}

; Function Attrs: inlinehint mustprogress nounwind uwtable
define linkonce_odr hidden noundef ptr @_Z6to_appPK3ast(ptr noundef %0) #7 comdat {
  %2 = alloca ptr, align 8
  store ptr %0, ptr %2, align 8, !tbaa !141
  %3 = load ptr, ptr %2, align 8, !tbaa !141
  ret ptr %3
}

; Function Attrs: mustprogress uwtable
define linkonce_odr hidden noundef zeroext i1 @_ZNK11ast_manager5is_eqEPK4expr(ptr noundef nonnull align 8 dereferenceable(976) %0, ptr noundef %1) #4 comdat align 2 {
  %3 = alloca ptr, align 8
  %4 = alloca ptr, align 8
  store ptr %0, ptr %3, align 8, !tbaa !137
  store ptr %1, ptr %4, align 8, !tbaa !71
  %5 = load ptr, ptr %4, align 8, !tbaa !71
  %6 = call noundef zeroext i1 @_Z9is_app_ofPK4exprii(ptr noundef %5, i32 noundef 0, i32 noundef 2)
  ret i1 %6
}

; Function Attrs: mustprogress uwtable
define linkonce_odr hidden noundef zeroext i1 @_ZNK11ast_manager5is_eqEPK4exprRPS0_S4_(ptr noundef nonnull align 8 dereferenceable(976) %0, ptr noundef %1, ptr noundef nonnull align 8 dereferenceable(8) %2, ptr noundef nonnull align 8 dereferenceable(8) %3) #4 comdat align 2 {
  %5 = alloca i1, align 1
  %6 = alloca ptr, align 8
  %7 = alloca ptr, align 8
  %8 = alloca ptr, align 8
  %9 = alloca ptr, align 8
  store ptr %0, ptr %6, align 8, !tbaa !137
  store ptr %1, ptr %7, align 8, !tbaa !71
  store ptr %2, ptr %8, align 8, !tbaa !64
  store ptr %3, ptr %9, align 8, !tbaa !64
  %10 = load ptr, ptr %6, align 8
  %11 = load ptr, ptr %7, align 8, !tbaa !71
  %12 = call noundef zeroext i1 @_ZNK11ast_manager5is_eqEPK4expr(ptr noundef nonnull align 8 dereferenceable(976) %10, ptr noundef %11)
  br i1 %12, label %13, label %27

13:                                               ; preds = %4
  %14 = load ptr, ptr %7, align 8, !tbaa !71
  %15 = call noundef ptr @_Z6to_appPK3ast(ptr noundef %14)
  %16 = call noundef i32 @_ZNK3app12get_num_argsEv(ptr noundef nonnull align 8 dereferenceable(32) %15)
  %17 = icmp eq i32 %16, 2
  br i1 %17, label %18, label %27

18:                                               ; preds = %13
  %19 = load ptr, ptr %7, align 8, !tbaa !71
  %20 = call noundef ptr @_Z6to_appPK3ast(ptr noundef %19)
  %21 = call noundef ptr @_ZNK3app7get_argEj(ptr noundef nonnull align 8 dereferenceable(32) %20, i32 noundef 0)
  %22 = load ptr, ptr %8, align 8, !tbaa !64
  store ptr %21, ptr %22, align 8, !tbaa !71
  %23 = load ptr, ptr %7, align 8, !tbaa !71
  %24 = call noundef ptr @_Z6to_appPK3ast(ptr noundef %23)
  %25 = call noundef ptr @_ZNK3app7get_argEj(ptr noundef nonnull align 8 dereferenceable(32) %24, i32 noundef 1)
  %26 = load ptr, ptr %9, align 8, !tbaa !64
  store ptr %25, ptr %26, align 8, !tbaa !71
  store i1 true, ptr %5, align 1
  br label %28

27:                                               ; preds = %13, %4
  store i1 false, ptr %5, align 1
  br label %28

28:                                               ; preds = %27, %18
  %29 = load i1, ptr %5, align 1
  ret i1 %29
}

; Function Attrs: mustprogress uwtable
define hidden noundef zeroext i1 @_ZN11bv_rewriter9is_eq_bitEP4exprRS1_Rj(ptr noundef nonnull align 8 dereferenceable(157) %0, ptr noundef %1, ptr noundef nonnull align 8 dereferenceable(8) %2, ptr noundef nonnull align 4 dereferenceable(4) %3) #4 align 2 {
  %5 = alloca i1, align 1
  %6 = alloca ptr, align 8
  %7 = alloca ptr, align 8
  %8 = alloca ptr, align 8
  %9 = alloca ptr, align 8
  %10 = alloca ptr, align 8
  %11 = alloca ptr, align 8
  %12 = alloca i32, align 4
  store ptr %0, ptr %6, align 8, !tbaa !3
  store ptr %1, ptr %7, align 8, !tbaa !71
  store ptr %2, ptr %8, align 8, !tbaa !64
  store ptr %3, ptr %9, align 8, !tbaa !132
  %13 = load ptr, ptr %6, align 8
  call void @llvm.lifetime.start.p0(i64 8, ptr %10) #3
  call void @llvm.lifetime.start.p0(i64 8, ptr %11) #3
  %14 = getelementptr inbounds nuw %class.bv_rewriter_core, ptr %13, i32 0, i32 0
  %15 = load ptr, ptr %14, align 8, !tbaa !82
  %16 = load ptr, ptr %7, align 8, !tbaa !71
  %17 = call noundef zeroext i1 @_ZNK11ast_manager5is_eqEPK4exprRPS0_S4_(ptr noundef nonnull align 8 dereferenceable(976) %15, ptr noundef %16, ptr noundef nonnull align 8 dereferenceable(8) %10, ptr noundef nonnull align 8 dereferenceable(8) %11)
  br i1 %17, label %19, label %18

18:                                               ; preds = %4
  store i1 false, ptr %5, align 1
  store i32 1, ptr %12, align 4
  br label %34

19:                                               ; preds = %4
  %20 = load ptr, ptr %10, align 8, !tbaa !71
  %21 = load ptr, ptr %9, align 8, !tbaa !132
  %22 = call noundef zeroext i1 @_ZN11bv_rewriter6is_bitEP4exprRj(ptr noundef nonnull align 8 dereferenceable(157) %13, ptr noundef %20, ptr noundef nonnull align 4 dereferenceable(4) %21)
  br i1 %22, label %23, label %26

23:                                               ; preds = %19
  %24 = load ptr, ptr %11, align 8, !tbaa !71
  %25 = load ptr, ptr %8, align 8, !tbaa !64
  store ptr %24, ptr %25, align 8, !tbaa !71
  store i1 true, ptr %5, align 1
  store i32 1, ptr %12, align 4
  br label %34

26:                                               ; preds = %19
  %27 = load ptr, ptr %11, align 8, !tbaa !71
  %28 = load ptr, ptr %9, align 8, !tbaa !132
  %29 = call noundef zeroext i1 @_ZN11bv_rewriter6is_bitEP4exprRj(ptr noundef nonnull align 8 dereferenceable(157) %13, ptr noundef %27, ptr noundef nonnull align 4 dereferenceable(4) %28)
  br i1 %29, label %30, label %33

30:                                               ; preds = %26
  %31 = load ptr, ptr %10, align 8, !tbaa !71
  %32 = load ptr, ptr %8, align 8, !tbaa !64
  store ptr %31, ptr %32, align 8, !tbaa !71
  store i1 true, ptr %5, align 1
  store i32 1, ptr %12, align 4
  br label %34

33:                                               ; preds = %26
  store i1 false, ptr %5, align 1
  store i32 1, ptr %12, align 4
  br label %34

34:                                               ; preds = %33, %30, %23, %18
  call void @llvm.lifetime.end.p0(i64 8, ptr %11) #3
  call void @llvm.lifetime.end.p0(i64 8, ptr %10) #3
  %35 = load i1, ptr %5, align 1
  ret i1 %35
}