; Function Attrs: mustprogress uwtable
define hidden noundef zeroext i1 @_ZN11bv_rewriter9is_eq_bitEP4exprRS1_Rj(ptr noundef nonnull align 8 dereferenceable(157) %0, ptr noundef readonly captures(none) %1, ptr noundef nonnull writeonly align 8 captures(none) dereferenceable(8) %2, ptr noundef nonnull writeonly align 4 captures(none) dereferenceable(4) %3) local_unnamed_addr #3 align 2 {
  %5 = getelementptr inbounds nuw i8, ptr %1, i64 4
  %6 = load i32, ptr %5, align 4
  %7 = and i32 %6, 65535
  %8 = icmp eq i32 %7, 0
  br i1 %8, label %9, label %_ZNK11ast_manager5is_eqEPK4exprRPS0_S4_.exit.thread

9:                                                ; preds = %4
  %10 = getelementptr inbounds nuw i8, ptr %1, i64 16
  %11 = load ptr, ptr %10, align 8, !tbaa !78
  %12 = getelementptr inbounds nuw i8, ptr %11, i64 24
  %13 = load ptr, ptr %12, align 8, !tbaa !57
  %.not.i.i.i.i.i = icmp eq ptr %13, null
  br i1 %.not.i.i.i.i.i, label %_ZNK11ast_manager5is_eqEPK4exprRPS0_S4_.exit.thread, label %_ZNK11ast_manager5is_eqEPK4expr.exit.i

_ZNK11ast_manager5is_eqEPK4expr.exit.i:           ; preds = %9
  %14 = load i32, ptr %13, align 8, !tbaa !82
  %15 = icmp eq i32 %14, 0
  %16 = getelementptr inbounds nuw i8, ptr %13, i64 4
  %17 = load i32, ptr %16, align 4
  %18 = icmp eq i32 %17, 2
  %19 = select i1 %15, i1 %18, i1 false
  br i1 %19, label %20, label %_ZNK11ast_manager5is_eqEPK4exprRPS0_S4_.exit.thread

20:                                               ; preds = %_ZNK11ast_manager5is_eqEPK4expr.exit.i
  %21 = getelementptr inbounds nuw i8, ptr %1, i64 24
  %22 = load i32, ptr %21, align 8, !tbaa !83
  %23 = icmp eq i32 %22, 2
  br i1 %23, label %24, label %_ZNK11ast_manager5is_eqEPK4exprRPS0_S4_.exit.thread

24:                                               ; preds = %20
  %25 = getelementptr inbounds nuw i8, ptr %1, i64 32
  %26 = load ptr, ptr %25, align 8, !tbaa !67
  %27 = getelementptr inbounds nuw i8, ptr %1, i64 40
  %28 = load ptr, ptr %27, align 8, !tbaa !67
  %29 = tail call noundef zeroext i1 @_ZN11bv_rewriter6is_bitEP4exprRj(ptr noundef nonnull align 8 dereferenceable(157) %0, ptr noundef %26, ptr noundef nonnull align 4 dereferenceable(4) %3)
  br i1 %29, label %_ZNK11ast_manager5is_eqEPK4exprRPS0_S4_.exit.thread.sink.split, label %30

30:                                               ; preds = %24
  %31 = tail call noundef zeroext i1 @_ZN11bv_rewriter6is_bitEP4exprRj(ptr noundef nonnull align 8 dereferenceable(157) %0, ptr noundef %28, ptr noundef nonnull align 4 dereferenceable(4) %3)
  br i1 %31, label %_ZNK11ast_manager5is_eqEPK4exprRPS0_S4_.exit.thread.sink.split, label %_ZNK11ast_manager5is_eqEPK4exprRPS0_S4_.exit.thread

_ZNK11ast_manager5is_eqEPK4exprRPS0_S4_.exit.thread.sink.split: ; preds = %30, %24
  %.sink = phi ptr [ %28, %24 ], [ %26, %30 ]
  store ptr %.sink, ptr %2, align 8, !tbaa !67
  br label %_ZNK11ast_manager5is_eqEPK4exprRPS0_S4_.exit.thread

_ZNK11ast_manager5is_eqEPK4exprRPS0_S4_.exit.thread: ; preds = %_ZNK11ast_manager5is_eqEPK4exprRPS0_S4_.exit.thread.sink.split, %9, %4, %_ZNK11ast_manager5is_eqEPK4expr.exit.i, %20, %30
  %.0 = phi i1 [ false, %30 ], [ false, %20 ], [ false, %_ZNK11ast_manager5is_eqEPK4expr.exit.i ], [ false, %4 ], [ false, %9 ], [ true, %_ZNK11ast_manager5is_eqEPK4exprRPS0_S4_.exit.thread.sink.split ]
  ret i1 %.0
}